target datalayout = "e-m:e-p270:32:32-p271:32:32-p272:64:64-i64:64-i128:128-f80:128-n8:16:32:64-S128"
target triple = "x86_64-pc-linux-gnu"

%struct.varattrib_1b = type { i8, [0 x i8] }
%struct.anon = type { i32, [0 x i8] }
%struct.inet_struct = type { i8, i8, [16 x i8] }
%struct.StringInfoData = type { ptr, i32, i32, i32 }

; Function Attrs: inlinehint nounwind uwtable
define internal void @pq_writeint8(ptr noalias noundef %0, i8 noundef zeroext %1) #2 {
  %3 = alloca ptr, align 8
  %4 = alloca i8, align 1
  %5 = alloca i8, align 1
  store ptr %0, ptr %3, align 8
  store i8 %1, ptr %4, align 1
  call void @llvm.lifetime.start.p0(i64 1, ptr %5) #8
  %6 = load i8, ptr %4, align 1
  store i8 %6, ptr %5, align 1
  %7 = load ptr, ptr %3, align 8
  %8 = getelementptr inbounds nuw %struct.StringInfoData, ptr %7, i32 0, i32 0
  %9 = load ptr, ptr %8, align 8
  %10 = load ptr, ptr %3, align 8
  %11 = getelementptr inbounds nuw %struct.StringInfoData, ptr %10, i32 0, i32 1
  %12 = load i32, ptr %11, align 8
  %13 = sext i32 %12 to i64
  %14 = getelementptr inbounds i8, ptr %9, i64 %13
  call void @llvm.memcpy.p0.p0.i64(ptr align 1 %14, ptr align 1 %5, i64 1, i1 false)
  %15 = load ptr, ptr %3, align 8
  %16 = getelementptr inbounds nuw %struct.StringInfoData, ptr %15, i32 0, i32 1
  %17 = load i32, ptr %16, align 8
  %18 = sext i32 %17 to i64
  %19 = add i64 %18, 1
  %20 = trunc i64 %19 to i32
  store i32 %20, ptr %16, align 8
  call void @llvm.lifetime.end.p0(i64 1, ptr %5) #8
  ret void
}

; Function Attrs: inlinehint nounwind uwtable
define internal void @pq_sendint8(ptr noundef %0, i8 noundef zeroext %1) #2 {
  %3 = alloca ptr, align 8
  %4 = alloca i8, align 1
  store ptr %0, ptr %3, align 8
  store i8 %1, ptr %4, align 1
  %5 = load ptr, ptr %3, align 8
  call void @enlargeStringInfo(ptr noundef %5, i32 noundef 1)
  %6 = load ptr, ptr %3, align 8
  %7 = load i8, ptr %4, align 1
  call void @pq_writeint8(ptr noundef %6, i8 noundef zeroext %7)
  ret void
}

; Function Attrs: inlinehint nounwind uwtable
define internal void @pq_sendbyte(ptr noundef %0, i8 noundef zeroext %1) #2 {
  %3 = alloca ptr, align 8
  %4 = alloca i8, align 1
  store ptr %0, ptr %3, align 8
  store i8 %1, ptr %4, align 1
  %5 = load ptr, ptr %3, align 8
  %6 = load i8, ptr %4, align 1
  call void @pq_sendint8(ptr noundef %5, i8 noundef zeroext %6)
  ret void
}

; Function Attrs: nounwind uwtable
define internal ptr @network_send(ptr noundef %0, i1 noundef zeroext %1) #0 {
  %3 = alloca ptr, align 8
  %4 = alloca i8, align 1
  %5 = alloca %struct.StringInfoData, align 8
  %6 = alloca ptr, align 8
  %7 = alloca i32, align 4
  %8 = alloca i32, align 4
  store ptr %0, ptr %3, align 8
  %9 = zext i1 %1 to i8
  store i8 %9, ptr %4, align 1
  call void @llvm.lifetime.start.p0(i64 24, ptr %5) #8
  call void @llvm.lifetime.start.p0(i64 8, ptr %6) #8
  call void @llvm.lifetime.start.p0(i64 4, ptr %7) #8
  call void @llvm.lifetime.start.p0(i64 4, ptr %8) #8
  call void @pq_begintypsend(ptr noundef %5)
  %10 = load ptr, ptr %3, align 8
  %11 = getelementptr inbounds nuw %struct.varattrib_1b, ptr %10, i32 0, i32 0
  %12 = load i8, ptr %11, align 1
  %13 = zext i8 %12 to i32
  %14 = and i32 %13, 1
  %15 = icmp eq i32 %14, 1
  br i1 %15, label %16, label %20

16:                                               ; preds = %2
  %17 = load ptr, ptr %3, align 8
  %18 = getelementptr inbounds nuw %struct.varattrib_1b, ptr %17, i32 0, i32 1
  %19 = getelementptr inbounds [0 x i8], ptr %18, i64 0, i64 0
  br label %24

20:                                               ; preds = %2
  %21 = load ptr, ptr %3, align 8
  %22 = getelementptr inbounds nuw %struct.anon, ptr %21, i32 0, i32 1
  %23 = getelementptr inbounds [0 x i8], ptr %22, i64 0, i64 0
  br label %24

24:                                               ; preds = %20, %16
  %25 = phi ptr [ %19, %16 ], [ %23, %20 ]
  %26 = getelementptr inbounds nuw %struct.inet_struct, ptr %25, i32 0, i32 0
  %27 = load i8, ptr %26, align 1
  call void @pq_sendbyte(ptr noundef %5, i8 noundef zeroext %27)
  %28 = load ptr, ptr %3, align 8
  %29 = getelementptr inbounds nuw %struct.varattrib_1b, ptr %28, i32 0, i32 0
  %30 = load i8, ptr %29, align 1
  %31 = zext i8 %30 to i32
  %32 = and i32 %31, 1
  %33 = icmp eq i32 %32, 1
  br i1 %33, label %34, label %38

34:                                               ; preds = %24
  %35 = load ptr, ptr %3, align 8
  %36 = getelementptr inbounds nuw %struct.varattrib_1b, ptr %35, i32 0, i32 1
  %37 = getelementptr inbounds [0 x i8], ptr %36, i64 0, i64 0
  br label %42

38:                                               ; preds = %24
  %39 = load ptr, ptr %3, align 8
  %40 = getelementptr inbounds nuw %struct.anon, ptr %39, i32 0, i32 1
  %41 = getelementptr inbounds [0 x i8], ptr %40, i64 0, i64 0
  br label %42

42:                                               ; preds = %38, %34
  %43 = phi ptr [ %37, %34 ], [ %41, %38 ]
  %44 = getelementptr inbounds nuw %struct.inet_struct, ptr %43, i32 0, i32 1
  %45 = load i8, ptr %44, align 1
  call void @pq_sendbyte(ptr noundef %5, i8 noundef zeroext %45)
  %46 = load i8, ptr %4, align 1, !range !4, !noundef !5
  %47 = trunc i8 %46 to i1
  %48 = zext i1 %47 to i8
  call void @pq_sendbyte(ptr noundef %5, i8 noundef zeroext %48)
  %49 = load ptr, ptr %3, align 8
  %50 = getelementptr inbounds nuw %struct.varattrib_1b, ptr %49, i32 0, i32 0
  %51 = load i8, ptr %50, align 1
  %52 = zext i8 %51 to i32
  %53 = and i32 %52, 1
  %54 = icmp eq i32 %53, 1
  br i1 %54, label %55, label %59

55:                                               ; preds = %42
  %56 = load ptr, ptr %3, align 8
  %57 = getelementptr inbounds nuw %struct.varattrib_1b, ptr %56, i32 0, i32 1
  %58 = getelementptr inbounds [0 x i8], ptr %57, i64 0, i64 0
  br label %63

59:                                               ; preds = %42
  %60 = load ptr, ptr %3, align 8
  %61 = getelementptr inbounds nuw %struct.anon, ptr %60, i32 0, i32 1
  %62 = getelementptr inbounds [0 x i8], ptr %61, i64 0, i64 0
  br label %63

63:                                               ; preds = %59, %55
  %64 = phi ptr [ %58, %55 ], [ %62, %59 ]
  %65 = getelementptr inbounds nuw %struct.inet_struct, ptr %64, i32 0, i32 0
  %66 = load i8, ptr %65, align 1
  %67 = zext i8 %66 to i32
  %68 = icmp eq i32 %67, 2
  %69 = select i1 %68, i32 4, i32 16
  store i32 %69, ptr %7, align 4
  %70 = load i32, ptr %7, align 4
  %71 = icmp slt i32 %70, 0
  br i1 %71, label %72, label %73

72:                                               ; preds = %63
  store i32 0, ptr %7, align 4
  br label %73

73:                                               ; preds = %72, %63
  %74 = load i32, ptr %7, align 4
  %75 = trunc i32 %74 to i8
  call void @pq_sendbyte(ptr noundef %5, i8 noundef zeroext %75)
  %76 = load ptr, ptr %3, align 8
  %77 = getelementptr inbounds nuw %struct.varattrib_1b, ptr %76, i32 0, i32 0
  %78 = load i8, ptr %77, align 1
  %79 = zext i8 %78 to i32
  %80 = and i32 %79, 1
  %81 = icmp eq i32 %80, 1
  br i1 %81, label %82, label %86

82:                                               ; preds = %73
  %83 = load ptr, ptr %3, align 8
  %84 = getelementptr inbounds nuw %struct.varattrib_1b, ptr %83, i32 0, i32 1
  %85 = getelementptr inbounds [0 x i8], ptr %84, i64 0, i64 0
  br label %90

86:                                               ; preds = %73
  %87 = load ptr, ptr %3, align 8
  %88 = getelementptr inbounds nuw %struct.anon, ptr %87, i32 0, i32 1
  %89 = getelementptr inbounds [0 x i8], ptr %88, i64 0, i64 0
  br label %90

90:                                               ; preds = %86, %82
  %91 = phi ptr [ %85, %82 ], [ %89, %86 ]
  %92 = getelementptr inbounds nuw %struct.inet_struct, ptr %91, i32 0, i32 2
  %93 = getelementptr inbounds [16 x i8], ptr %92, i64 0, i64 0
  store ptr %93, ptr %6, align 8
  store i32 0, ptr %8, align 4
  br label %94

94:                                               ; preds = %104, %90
  %95 = load i32, ptr %8, align 4
  %96 = load i32, ptr %7, align 4
  %97 = icmp slt i32 %95, %96
  br i1 %97, label %98, label %107

98:                                               ; preds = %94
  %99 = load ptr, ptr %6, align 8
  %100 = load i32, ptr %8, align 4
  %101 = sext i32 %100 to i64
  %102 = getelementptr inbounds i8, ptr %99, i64 %101
  %103 = load i8, ptr %102, align 1
  call void @pq_sendbyte(ptr noundef %5, i8 noundef zeroext %103)
  br label %104

104:                                              ; preds = %98
  %105 = load i32, ptr %8, align 4
  %106 = add i32 %105, 1
  store i32 %106, ptr %8, align 4
  br label %94, !llvm.loop !8

107:                                              ; preds = %94
  %108 = call ptr @pq_endtypsend(ptr noundef %5)
  call void @llvm.lifetime.end.p0(i64 4, ptr %8) #8
  call void @llvm.lifetime.end.p0(i64 4, ptr %7) #8
  call void @llvm.lifetime.end.p0(i64 8, ptr %6) #8
  call void @llvm.lifetime.end.p0(i64 24, ptr %5) #8
  ret ptr %108
}