; Function Attrs: nounwind uwtable
define internal fastcc ptr @network_send(ptr noundef readonly captures(none) %0, i1 noundef zeroext %1) unnamed_addr #0 {
  %3 = alloca %struct.StringInfoData, align 8
  %4 = zext i1 %1 to i8
  call void @llvm.lifetime.start.p0(i64 24, ptr nonnull %3) #14
  call void @pq_begintypsend(ptr noundef nonnull %3) #14
  %5 = load i8, ptr %0, align 1
  %6 = and i8 %5, 1
  %.not = icmp eq i8 %6, 0
  %7 = getelementptr inbounds nuw i8, ptr %0, i64 1
  %8 = getelementptr inbounds nuw i8, ptr %0, i64 4
  %9 = select i1 %.not, ptr %8, ptr %7
  %10 = load i8, ptr %9, align 1
  call void @enlargeStringInfo(ptr noundef nonnull %3, i32 noundef 1) #14
  call void @llvm.experimental.noalias.scope.decl(metadata !7)
  %11 = load ptr, ptr %3, align 8, !alias.scope !7
  %12 = getelementptr inbounds nuw i8, ptr %3, i64 8
  %13 = load i32, ptr %12, align 8, !alias.scope !7
  %14 = sext i32 %13 to i64
  %15 = getelementptr inbounds i8, ptr %11, i64 %14
  store i8 %10, ptr %15, align 1, !noalias !7
  %16 = add i32 %13, 1
  store i32 %16, ptr %12, align 8, !alias.scope !7
  %17 = load i8, ptr %0, align 1
  %18 = and i8 %17, 1
  %.not19 = icmp eq i8 %18, 0
  %19 = select i1 %.not19, ptr %8, ptr %7
  %20 = getelementptr inbounds nuw i8, ptr %19, i64 1
  %21 = load i8, ptr %20, align 1
  call void @enlargeStringInfo(ptr noundef nonnull %3, i32 noundef 1) #14
  call void @llvm.experimental.noalias.scope.decl(metadata !10)
  %22 = load ptr, ptr %3, align 8, !alias.scope !10
  %23 = load i32, ptr %12, align 8, !alias.scope !10
  %24 = sext i32 %23 to i64
  %25 = getelementptr inbounds i8, ptr %22, i64 %24
  store i8 %21, ptr %25, align 1, !noalias !10
  %26 = add i32 %23, 1
  store i32 %26, ptr %12, align 8, !alias.scope !10
  call void @enlargeStringInfo(ptr noundef nonnull %3, i32 noundef 1) #14
  call void @llvm.experimental.noalias.scope.decl(metadata !13)
  %27 = load ptr, ptr %3, align 8, !alias.scope !13
  %28 = load i32, ptr %12, align 8, !alias.scope !13
  %29 = sext i32 %28 to i64
  %30 = getelementptr inbounds i8, ptr %27, i64 %29
  store i8 %4, ptr %30, align 1, !noalias !13
  %31 = add i32 %28, 1
  store i32 %31, ptr %12, align 8, !alias.scope !13
  %32 = load i8, ptr %0, align 1
  %33 = and i8 %32, 1
  %.not20 = icmp eq i8 %33, 0
  %34 = select i1 %.not20, ptr %8, ptr %7
  %35 = load i8, ptr %34, align 1
  %36 = icmp eq i8 %35, 2
  %37 = select i1 %36, i32 4, i32 16
  %38 = trunc nuw nsw i32 %37 to i8
  call void @enlargeStringInfo(ptr noundef nonnull %3, i32 noundef 1) #14
  call void @llvm.experimental.noalias.scope.decl(metadata !16)
  %39 = load ptr, ptr %3, align 8, !alias.scope !16
  %40 = load i32, ptr %12, align 8, !alias.scope !16
  %41 = sext i32 %40 to i64
  %42 = getelementptr inbounds i8, ptr %39, i64 %41
  store i8 %38, ptr %42, align 1, !noalias !16
  %43 = add i32 %40, 1
  store i32 %43, ptr %12, align 8, !alias.scope !16
  %44 = load i8, ptr %0, align 1
  %45 = and i8 %44, 1
  %.not21 = icmp eq i8 %45, 0
  %46 = select i1 %.not21, ptr %8, ptr %7
  %47 = getelementptr inbounds nuw i8, ptr %46, i64 2
  %wide.trip.count = zext nneg i32 %37 to i64
  br label %48

48:                                               ; preds = %2, %48
  %indvars.iv = phi i64 [ 0, %2 ], [ %indvars.iv.next, %48 ]
  %49 = getelementptr inbounds nuw i8, ptr %47, i64 %indvars.iv
  %50 = load i8, ptr %49, align 1
  call void @enlargeStringInfo(ptr noundef nonnull %3, i32 noundef 1) #14
  call void @llvm.experimental.noalias.scope.decl(metadata !19)
  %51 = load ptr, ptr %3, align 8, !alias.scope !19
  %52 = load i32, ptr %12, align 8, !alias.scope !19
  %53 = sext i32 %52 to i64
  %54 = getelementptr inbounds i8, ptr %51, i64 %53
  store i8 %50, ptr %54, align 1, !noalias !19
  %55 = add i32 %52, 1
  store i32 %55, ptr %12, align 8, !alias.scope !19
  %indvars.iv.next = add nuw nsw i64 %indvars.iv, 1
  %exitcond.not = icmp eq i64 %indvars.iv.next, %wide.trip.count
  br i1 %exitcond.not, label %56, label %48, !llvm.loop !22

56:                                               ; preds = %48
  %57 = call ptr @pq_endtypsend(ptr noundef nonnull %3) #14
  call void @llvm.lifetime.end.p0(i64 24, ptr nonnull %3) #14
  ret ptr %57
}